ccopy_reg
_reconstructor
p0
(cRoles.controller.genetics
Population
p1
c__builtin__
object
p2
Ntp3
Rp4
(dp5
S'finished_thresh'
p6
F0.95
sS'target'
p7
F0.9
sS'best'
p8
g0
(cRoles.controller.genetics
DNA
p9
g2
Ntp10
Rp11
(dp12
S'image'
p13
NsS'genes'
p14
(dp15
S'dj_light_1_r'
p16
I184
sS'mister_2'
p17
I255
sS'mister_1'
p18
I255
sS'dj_light_2_r'
p19
I220
sS'dj_light_1_d'
p20
I255
sS'dj_light_1_g'
p21
I1
sS'pump'
p22
I255
sS'raindrops_2'
p23
I0
sS'raindrops_3'
p24
I255
sS'raindrops_1'
p25
I255
sS'dj_light_1_b'
p26
I107
sS'grow_light'
p27
I255
sS'dj_light_2_b'
p28
I103
sS'dj_light_2_d'
p29
I255
sS'dj_light_2_g'
p30
I57
ssS'fitness_label'
p31
S'landscape painting'
p32
sS'fitness'
p33
I0
sbsS'mating_pool'
p34
(lp35
g0
(g9
g2
Ntp36
Rp37
(dp38
g13
S'Captures/wetlands-environment-1_1530736150.png'
p39
sg14
(dp40
S'dj_light_1_r'
p41
I158
sS'mister_2'
p42
I255
sS'mister_1'
p43
I255
sS'dj_light_2_r'
p44
I214
sS'pump'
p45
I0
sS'dj_light_1_g'
p46
I103
sS'dj_light_1_d'
p47
I255
sS'raindrops_2'
p48
I0
sS'raindrops_3'
p49
I0
sS'raindrops_1'
p50
I255
sS'dj_light_1_b'
p51
I147
sS'grow_light'
p52
I255
sS'dj_light_2_b'
p53
I68
sS'dj_light_2_d'
p54
I255
sS'dj_light_2_g'
p55
I160
ssg31
g32
sg33
cnumpy.core.multiarray
scalar
p56
(cnumpy
dtype
p57
(S'f4'
p58
I0
I1
tp59
Rp60
(I3
S'<'
p61
NNNI-1
I-1
I0
tp62
bS'\xc2>s7'
p63
tp64
Rp65
sbag37
ag37
ag37
ag37
ag37
ag0
(g9
g2
Ntp66
Rp67
(dp68
g13
S'Captures/wetlands-environment-1_1530736160.png'
p69
sg14
(dp70
g41
I241
sg42
I255
sg43
I255
sg44
I235
sg45
I0
sg46
I164
sg47
I255
sg48
I255
sg49
I255
sg50
I255
sg51
I47
sg52
I0
sg53
I73
sg54
I255
sg55
I223
ssg31
g32
sg33
g56
(g60
S'\xb4\xbd\x997'
p71
tp72
Rp73
sbag67
ag67
ag67
ag67
ag67
ag67
ag67
ag0
(g9
g2
Ntp74
Rp75
(dp76
g13
S'Captures/wetlands-environment-1_1530736165.png'
p77
sg14
(dp78
g41
I247
sg42
I0
sg43
I0
sg44
I14
sg45
I0
sg46
I79
sg47
I255
sg48
I0
sg49
I255
sg50
I255
sg51
I86
sg52
I255
sg53
I246
sg54
I255
sg55
I195
ssg31
g32
sg33
g56
(g60
S'\xc5\xa2\xc17'
p79
tp80
Rp81
sbag75
ag75
ag75
ag75
ag75
ag75
ag75
ag75
ag75
ag0
(g9
g2
Ntp82
Rp83
(dp84
g13
S'Captures/wetlands-environment-1_1530736170.png'
p85
sg14
(dp86
g41
I219
sg42
I255
sg43
I255
sg44
I146
sg45
I0
sg46
I27
sg47
I255
sg48
I255
sg49
I0
sg50
I255
sg51
I232
sg52
I0
sg53
I146
sg54
I255
sg55
I146
ssg31
g32
sg33
g56
(g60
S'\xb3\x1e\xc86'
p87
tp88
Rp89
sbag83
ag0
(g9
g2
Ntp90
Rp91
(dp92
g13
S'Captures/wetlands-environment-1_1530736175.png'
p93
sg14
(dp94
g41
I158
sg42
I0
sg43
I255
sg44
I82
sg45
I255
sg46
I32
sg47
I255
sg48
I255
sg49
I0
sg50
I255
sg51
I107
sg52
I255
sg53
I17
sg54
I255
sg55
I43
ssg31
g32
sg33
g56
(g60
S'6\xc9\xf77'
p95
tp96
Rp97
sbag91
ag91
ag91
ag91
ag91
ag91
ag91
ag91
ag91
ag91
ag91
ag91
ag0
(g9
g2
Ntp98
Rp99
(dp100
g13
S'Captures/wetlands-environment-1_1530736185.png'
p101
sg14
(dp102
g41
I152
sg42
I0
sg43
I0
sg44
I102
sg45
I0
sg46
I49
sg47
I255
sg48
I255
sg49
I255
sg50
I0
sg51
I141
sg52
I0
sg53
I152
sg54
I255
sg55
I209
ssg31
g32
sg33
g56
(g60
S'_\xc1l6'
p103
tp104
Rp105
sbag0
(g9
g2
Ntp106
Rp107
(dp108
g13
S'Captures/wetlands-environment-1_1530737202.png'
p109
sg14
(dp110
g41
I184
sg42
I255
sg43
I255
sg44
I220
sg45
I255
sg46
I1
sg47
I255
sg48
I0
sg49
I255
sg50
I255
sg51
I107
sg52
I255
sg53
I103
sg54
I255
sg55
I57
ssg31
g32
sg33
g56
(g60
S'oxc9'
p111
tp112
Rp113
sbag107
ag107
ag107
ag107
ag107
ag107
ag107
ag107
ag107
ag107
ag107
ag107
ag107
ag107
ag107
ag107
ag107
ag107
ag107
ag107
ag107
ag107
ag107
ag107
ag107
ag107
ag107
ag107
ag107
ag107
ag107
ag107
ag107
ag107
ag107
ag107
ag107
ag107
ag107
ag107
ag107
ag107
ag107
ag107
ag107
ag107
ag107
ag107
ag107
ag107
ag107
ag107
ag107
ag107
ag107
ag107
ag107
ag107
ag107
ag107
ag107
ag107
ag107
ag107
ag107
ag107
ag107
ag107
ag107
ag107
ag107
ag107
ag107
ag107
ag107
ag107
ag107
ag107
ag107
ag107
ag107
ag107
ag107
ag107
ag107
ag107
ag107
ag107
ag107
ag107
ag107
ag107
ag107
ag107
ag107
ag107
ag107
ag107
ag107
asS'finished'
p114
I00
sS'mutation_rate'
p115
F0.01
sS'pop_max'
p116
I10
sg31
g32
sS'current_dna'
p117
I2
sS'generations'
p118
I1
sS'population'
p119
(lp120
g0
(g9
g2
Ntp121
Rp122
(dp123
g13
S'Captures/wetlands-environment-1_1530737767.png'
p124
sg14
(dp125
g16
I184
sg17
I255
sg18
I255
sg19
I220
sg20
I255
sg21
I1
sg22
I255
sg23
I0
sg24
I255
sg25
I255
sg26
I107
sg27
I255
sg28
I103
sg29
I255
sg30
I57
ssg31
g32
sg33
g56
(g60
S'T\xde\xa49'
p126
tp127
Rp128
sbag0
(g9
g2
Ntp129
Rp130
(dp131
g13
S'Captures/wetlands-environment-1_1530737772.png'
p132
sg14
(dp133
g16
I247
sg17
I0
sg18
I0
sg19
I14
sg20
I255
sg21
I79
sg22
I0
sg23
I0
sg24
I255
sg25
I255
sg26
I86
sg27
I255
sg28
I246
sg29
I255
sg30
I195
ssg31
g32
sg33
g56
(g60
S'\x9b\xfel8'
p134
tp135
Rp136
sbag0
(g9
g2
Ntp137
Rp138
(dp139
g13
Nsg14
(dp140
g16
I184
sg17
I255
sg18
I255
sg19
I220
sg20
I255
sg21
I32
sg22
I255
sg23
I255
sg24
I0
sg25
I255
sg26
I107
sg27
I255
sg28
I17
sg29
I255
sg30
I43
ssg31
g32
sg33
I0
sbag0
(g9
g2
Ntp141
Rp142
(dp143
g13
Nsg14
(dp144
g16
I184
sg17
I255
sg18
I255
sg19
I220
sg20
I255
sg21
I1
sg22
I255
sg23
I0
sg24
I255
sg25
I255
sg26
I107
sg27
I255
sg28
I103
sg29
I255
sg30
I57
ssg31
g32
sg33
I0
sbag0
(g9
g2
Ntp145
Rp146
(dp147
g13
Nsg14
(dp148
g16
I247
sg17
I0
sg18
I0
sg19
I14
sg20
I255
sg21
I79
sg22
I0
sg23
I0
sg24
I255
sg25
I255
sg26
I86
sg27
I255
sg28
I246
sg29
I255
sg30
I195
ssg31
g32
sg33
I0
sbag0
(g9
g2
Ntp149
Rp150
(dp151
g13
Nsg14
(dp152
g16
I184
sg17
I255
sg18
I255
sg19
I220
sg20
I255
sg21
I1
sg22
I255
sg23
I0
sg24
I255
sg25
I255
sg26
I107
sg27
I255
sg28
I103
sg29
I255
sg30
I57
ssg31
g32
sg33
I0
sbag0
(g9
g2
Ntp153
Rp154
(dp155
g13
Nsg14
(dp156
g16
I184
sg17
I255
sg18
I255
sg19
I220
sg20
I255
sg21
I1
sg22
I255
sg23
I0
sg24
I255
sg25
I255
sg26
I107
sg27
I255
sg28
I103
sg29
I255
sg30
I57
ssg31
g32
sg33
I0
sbag0
(g9
g2
Ntp157
Rp158
(dp159
g13
Nsg14
(dp160
g16
I184
sg17
I255
sg18
I255
sg19
I220
sg20
I255
sg21
I1
sg22
I255
sg23
I0
sg24
I255
sg25
I255
sg26
I107
sg27
I255
sg28
I103
sg29
I255
sg30
I57
ssg31
g32
sg33
I0
sbag0
(g9
g2
Ntp161
Rp162
(dp163
g13
Nsg14
(dp164
g16
I184
sg17
I255
sg18
I255
sg19
I220
sg20
I255
sg21
I1
sg22
I255
sg23
I0
sg24
I255
sg25
I255
sg26
I107
sg27
I255
sg28
I103
sg29
I255
sg30
I57
ssg31
g32
sg33
I0
sbag11
asb.