ccopy_reg
_reconstructor
p0
(cRoles.controller.genetics
Population
p1
c__builtin__
object
p2
Ntp3
Rp4
(dp5
S'finished_thresh'
p6
F0.95
sS'target'
p7
F0.9
sS'best'
p8
S''
p9
sS'mating_pool'
p10
(lp11
sS'finished'
p12
I00
sS'mutation_rate'
p13
F0.01
sS'pop_max'
p14
I10
sS'fitness_label'
p15
S'wetlands landscape'
p16
sS'current_dna'
p17
I0
sS'generations'
p18
I0
sS'population'
p19
(lp20
g0
(cRoles.controller.genetics
DNA
p21
g2
Ntp22
Rp23
(dp24
S'image'
p25
NsS'genes'
p26
(dp27
S'dj_light_1_r'
p28
I190
sS'mister_2'
p29
I0
sS'mister_1'
p30
I0
sS'dj_light_2_r'
p31
I114
sS'pump'
p32
I0
sS'dj_light_1_g'
p33
I202
sS'dj_light_1_d'
p34
I255
sS'raindrops_2'
p35
I0
sS'raindrops_3'
p36
I255
sS'raindrops_1'
p37
I255
sS'dj_light_1_b'
p38
I91
sS'grow_light'
p39
I255
sS'dj_light_2_b'
p40
I217
sS'dj_light_2_d'
p41
I255
sS'dj_light_2_g'
p42
I55
ssg15
g16
sS'fitness'
p43
I0
sbag0
(g21
g2
Ntp44
Rp45
(dp46
g25
Nsg26
(dp47
g28
I211
sg29
I255
sg30
I0
sg31
I93
sg32
I0
sg33
I108
sg34
I255
sg35
I0
sg36
I0
sg37
I255
sg38
I136
sg39
I0
sg40
I88
sg41
I255
sg42
I99
ssg15
g16
sg43
I0
sbag0
(g21
g2
Ntp48
Rp49
(dp50
g25
Nsg26
(dp51
g28
I164
sg29
I0
sg30
I255
sg31
I58
sg32
I255
sg33
I187
sg34
I255
sg35
I0
sg36
I0
sg37
I0
sg38
I17
sg39
I255
sg40
I195
sg41
I255
sg42
I237
ssg15
g16
sg43
I0
sbag0
(g21
g2
Ntp52
Rp53
(dp54
g25
Nsg26
(dp55
g28
I69
sg29
I0
sg30
I255
sg31
I195
sg32
I255
sg33
I87
sg34
I255
sg35
I255
sg36
I255
sg37
I0
sg38
I196
sg39
I255
sg40
I77
sg41
I255
sg42
I52
ssg15
g16
sg43
I0
sbag0
(g21
g2
Ntp56
Rp57
(dp58
g25
Nsg26
(dp59
g28
I124
sg29
I0
sg30
I255
sg31
I237
sg32
I255
sg33
I6
sg34
I255
sg35
I255
sg36
I255
sg37
I255
sg38
I120
sg39
I0
sg40
I50
sg41
I255
sg42
I218
ssg15
g16
sg43
I0
sbag0
(g21
g2
Ntp60
Rp61
(dp62
g25
Nsg26
(dp63
g28
I138
sg29
I255
sg30
I255
sg31
I5
sg32
I0
sg33
I32
sg34
I255
sg35
I255
sg36
I0
sg37
I255
sg38
I132
sg39
I255
sg40
I219
sg41
I255
sg42
I166
ssg15
g16
sg43
I0
sbag0
(g21
g2
Ntp64
Rp65
(dp66
g25
Nsg26
(dp67
g28
I65
sg29
I0
sg30
I255
sg31
I101
sg32
I255
sg33
I48
sg34
I255
sg35
I255
sg36
I255
sg37
I255
sg38
I253
sg39
I0
sg40
I145
sg41
I255
sg42
I147
ssg15
g16
sg43
I0
sbag0
(g21
g2
Ntp68
Rp69
(dp70
g25
Nsg26
(dp71
g28
I160
sg29
I0
sg30
I255
sg31
I13
sg32
I0
sg33
I115
sg34
I255
sg35
I0
sg36
I0
sg37
I0
sg38
I232
sg39
I255
sg40
I105
sg41
I255
sg42
I206
ssg15
g16
sg43
I0
sbag0
(g21
g2
Ntp72
Rp73
(dp74
g25
Nsg26
(dp75
g28
I43
sg29
I0
sg30
I255
sg31
I160
sg32
I0
sg33
I225
sg34
I255
sg35
I255
sg36
I0
sg37
I0
sg38
I48
sg39
I0
sg40
I84
sg41
I255
sg42
I35
ssg15
g16
sg43
I0
sbag0
(g21
g2
Ntp76
Rp77
(dp78
g25
Nsg26
(dp79
g28
I118
sg29
I0
sg30
I255
sg31
I44
sg32
I255
sg33
I207
sg34
I255
sg35
I255
sg36
I0
sg37
I0
sg38
I141
sg39
I0
sg40
I58
sg41
I255
sg42
I36
ssg15
g16
sg43
I0
sbasb.