ccopy_reg
_reconstructor
p0
(cRoles.controller.genetics
Population
p1
c__builtin__
object
p2
Ntp3
Rp4
(dp5
S'finished_thresh'
p6
F0.95
sS'target'
p7
F0.9
sS'best'
p8
g0
(cRoles.controller.genetics
DNA
p9
g2
Ntp10
Rp11
(dp12
S'image'
p13
NsS'genes'
p14
(dp15
S'dj_light_1_r'
p16
I93
sS'mister_2'
p17
I255
sS'mister_1'
p18
I0
sS'dj_light_2_r'
p19
I71
sS'pump'
p20
I0
sS'dj_light_1_g'
p21
I137
sS'dj_light_1_d'
p22
I255
sS'raindrops_2'
p23
I255
sS'raindrops_3'
p24
I255
sS'raindrops_1'
p25
I0
sS'dj_light_1_b'
p26
I23
sS'grow_light'
p27
I0
sS'dj_light_2_b'
p28
I213
sS'dj_light_2_d'
p29
I255
sS'dj_light_2_g'
p30
I46
ssS'fitness_label'
p31
S'crowd'
p32
sS'fitness'
p33
I0
sbsS'mating_pool'
p34
(lp35
g0
(g9
g2
Ntp36
Rp37
(dp38
g13
S'Captures/wetlands-environment-3_1530831865.png'
p39
sg14
(dp40
g16
I93
sg17
I255
sg18
I0
sg19
I71
sg20
I0
sg21
I130
sg22
I255
sg23
I255
sg24
I0
sg25
I0
sg26
I23
sg27
I0
sg28
I213
sg29
I255
sg30
I46
ssg31
g32
sg33
cnumpy.core.multiarray
scalar
p41
(cnumpy
dtype
p42
(S'f4'
p43
I0
I1
tp44
Rp45
(I3
S'<'
p46
NNNI-1
I-1
I0
tp47
bS'\x17\xbb\r;'
p48
tp49
Rp50
sbag37
ag37
ag37
ag37
ag37
ag37
ag37
ag37
ag37
ag37
ag37
ag37
ag37
ag37
ag37
ag37
ag37
ag37
ag37
ag37
ag37
ag37
ag37
ag37
ag37
ag37
ag37
ag37
ag37
ag37
ag37
ag37
ag37
ag37
ag37
ag37
ag37
ag37
ag37
ag37
ag37
ag37
ag37
ag37
ag37
ag37
ag37
ag37
ag37
ag37
ag37
ag37
ag37
ag37
ag37
ag37
ag37
ag37
ag37
ag37
ag37
ag37
ag37
ag37
ag37
ag37
ag37
ag37
ag37
ag37
ag37
ag37
ag37
ag37
ag37
ag37
ag37
ag37
ag37
ag37
ag37
ag37
ag37
ag37
ag37
ag37
ag37
ag37
ag37
ag37
ag37
ag37
ag37
ag37
ag37
ag37
ag37
ag37
ag37
ag0
(g9
g2
Ntp51
Rp52
(dp53
g13
S'Captures/wetlands-environment-3_1530831870.png'
p54
sg14
(dp55
g16
I93
sg17
I255
sg18
I0
sg19
I71
sg20
I0
sg21
I137
sg22
I255
sg23
I255
sg24
I255
sg25
I0
sg26
I23
sg27
I0
sg28
I213
sg29
I255
sg30
I46
ssg31
g32
sg33
g41
(g45
S'$\xcce:'
p56
tp57
Rp58
sbag52
ag52
ag52
ag52
ag52
ag52
ag52
ag52
ag52
ag52
ag52
ag52
ag52
ag52
ag52
ag52
ag52
ag52
ag52
ag52
ag52
ag52
ag52
ag52
ag52
ag52
ag52
ag52
ag52
ag52
ag52
ag52
ag52
ag52
ag52
ag52
ag52
ag52
ag52
ag0
(g9
g2
Ntp59
Rp60
(dp61
g13
S'Captures/wetlands-environment-3_1530831875.png'
p62
sg14
(dp63
g16
I93
sg17
I255
sg18
I0
sg19
I71
sg20
I0
sg21
I137
sg22
I255
sg23
I255
sg24
I255
sg25
I0
sg26
I23
sg27
I0
sg28
I213
sg29
I255
sg30
I46
ssg31
g32
sg33
g41
(g45
S'\xef\xf7\xed:'
p64
tp65
Rp66
sbag60
ag60
ag60
ag60
ag60
ag60
ag60
ag60
ag60
ag60
ag60
ag60
ag60
ag60
ag60
ag60
ag60
ag60
ag60
ag60
ag60
ag60
ag60
ag60
ag60
ag60
ag60
ag60
ag60
ag60
ag60
ag60
ag60
ag60
ag60
ag60
ag60
ag60
ag60
ag60
ag60
ag60
ag60
ag60
ag60
ag60
ag60
ag60
ag60
ag60
ag60
ag60
ag60
ag60
ag60
ag60
ag60
ag60
ag60
ag60
ag60
ag60
ag60
ag60
ag60
ag60
ag60
ag60
ag60
ag60
ag60
ag60
ag60
ag60
ag60
ag60
ag60
ag60
ag60
ag60
ag60
ag60
ag0
(g9
g2
Ntp67
Rp68
(dp69
g13
S'Captures/wetlands-environment-3_1530831880.png'
p70
sg14
(dp71
g16
I93
sg17
I255
sg18
I0
sg19
I71
sg20
I0
sg21
I14
sg22
I255
sg23
I255
sg24
I0
sg25
I0
sg26
I23
sg27
I0
sg28
I213
sg29
I255
sg30
I46
ssg31
g32
sg33
g41
(g45
S'\x0c\x9d\x85:'
p72
tp73
Rp74
sbag68
ag68
ag68
ag68
ag68
ag68
ag68
ag68
ag68
ag68
ag68
ag68
ag68
ag68
ag68
ag68
ag68
ag68
ag68
ag68
ag68
ag68
ag68
ag68
ag68
ag68
ag68
ag68
ag68
ag68
ag68
ag68
ag68
ag68
ag68
ag68
ag68
ag68
ag68
ag68
ag68
ag68
ag68
ag68
ag68
ag68
ag0
(g9
g2
Ntp75
Rp76
(dp77
g13
S'Captures/wetlands-environment-3_1530831885.png'
p78
sg14
(dp79
g16
I93
sg17
I255
sg18
I0
sg19
I71
sg20
I0
sg21
I137
sg22
I255
sg23
I255
sg24
I0
sg25
I0
sg26
I23
sg27
I0
sg28
I213
sg29
I255
sg30
I46
ssg31
g32
sg33
g41
(g45
S'\x12\xe2*:'
p80
tp81
Rp82
sbag76
ag76
ag76
ag76
ag76
ag76
ag76
ag76
ag76
ag76
ag76
ag76
ag76
ag76
ag76
ag76
ag76
ag76
ag76
ag76
ag76
ag76
ag76
ag76
ag76
ag76
ag76
ag76
ag76
ag0
(g9
g2
Ntp83
Rp84
(dp85
g13
S'Captures/wetlands-environment-3_1530831890.png'
p86
sg14
(dp87
g16
I93
sg17
I255
sg18
I0
sg19
I71
sg20
I0
sg21
I137
sg22
I255
sg23
I255
sg24
I255
sg25
I0
sg26
I90
sg27
I0
sg28
I213
sg29
I255
sg30
I46
ssg31
g32
sg33
g41
(g45
S'\x9a\x07v:'
p88
tp89
Rp90
sbag84
ag84
ag84
ag84
ag84
ag84
ag84
ag84
ag84
ag84
ag84
ag84
ag84
ag84
ag84
ag84
ag84
ag84
ag84
ag84
ag84
ag84
ag84
ag84
ag84
ag84
ag84
ag84
ag84
ag84
ag84
ag84
ag84
ag84
ag84
ag84
ag84
ag84
ag84
ag84
ag84
ag84
ag0
(g9
g2
Ntp91
Rp92
(dp93
g13
S'Captures/wetlands-environment-3_1530831895.png'
p94
sg14
(dp95
g16
I93
sg17
I255
sg18
I0
sg19
I71
sg20
I0
sg21
I137
sg22
I255
sg23
I255
sg24
I255
sg25
I0
sg26
I23
sg27
I0
sg28
I213
sg29
I255
sg30
I46
ssg31
g32
sg33
g41
(g45
S'H\x84\xec:'
p96
tp97
Rp98
sbag92
ag92
ag92
ag92
ag92
ag92
ag92
ag92
ag92
ag92
ag92
ag92
ag92
ag92
ag92
ag92
ag92
ag92
ag92
ag92
ag92
ag92
ag92
ag92
ag92
ag92
ag92
ag92
ag92
ag92
ag92
ag92
ag92
ag92
ag92
ag92
ag92
ag92
ag92
ag92
ag92
ag92
ag92
ag92
ag92
ag92
ag92
ag92
ag92
ag92
ag92
ag92
ag92
ag92
ag92
ag92
ag92
ag92
ag92
ag92
ag92
ag92
ag92
ag92
ag92
ag92
ag92
ag92
ag92
ag92
ag92
ag92
ag92
ag92
ag92
ag92
ag92
ag92
ag92
ag92
ag92
ag92
ag0
(g9
g2
Ntp99
Rp100
(dp101
g13
S'Captures/wetlands-environment-3_1530831900.png'
p102
sg14
(dp103
g16
I93
sg17
I255
sg18
I0
sg19
I71
sg20
I0
sg21
I137
sg22
I255
sg23
I255
sg24
I0
sg25
I0
sg26
I23
sg27
I0
sg28
I213
sg29
I255
sg30
I46
ssg31
g32
sg33
g41
(g45
S'\xdd\xad\xa7:'
p104
tp105
Rp106
sbag100
ag100
ag100
ag100
ag100
ag100
ag100
ag100
ag100
ag100
ag100
ag100
ag100
ag100
ag100
ag100
ag100
ag100
ag100
ag100
ag100
ag100
ag100
ag100
ag100
ag100
ag100
ag100
ag100
ag100
ag100
ag100
ag100
ag100
ag100
ag100
ag100
ag100
ag100
ag100
ag100
ag100
ag100
ag100
ag100
ag100
ag100
ag100
ag100
ag100
ag100
ag100
ag100
ag100
ag100
ag100
ag100
ag100
ag0
(g9
g2
Ntp107
Rp108
(dp109
g13
S'Captures/wetlands-environment-3_1530831905.png'
p110
sg14
(dp111
g16
I93
sg17
I255
sg18
I0
sg19
I71
sg20
I0
sg21
I137
sg22
I255
sg23
I255
sg24
I0
sg25
I0
sg26
I23
sg27
I0
sg28
I213
sg29
I255
sg30
I46
ssg31
g32
sg33
g41
(g45
S'=\xa7\xab:'
p112
tp113
Rp114
sbag108
ag108
ag108
ag108
ag108
ag108
ag108
ag108
ag108
ag108
ag108
ag108
ag108
ag108
ag108
ag108
ag108
ag108
ag108
ag108
ag108
ag108
ag108
ag108
ag108
ag108
ag108
ag108
ag108
ag108
ag108
ag108
ag108
ag108
ag108
ag108
ag108
ag108
ag108
ag108
ag108
ag108
ag108
ag108
ag108
ag108
ag108
ag108
ag108
ag108
ag108
ag108
ag108
ag108
ag108
ag108
ag108
ag108
ag108
asS'finished'
p115
I00
sS'mutation_rate'
p116
F0.01
sS'pop_max'
p117
I10
sg31
g32
sS'current_dna'
p118
I9
sS'generations'
p119
I171
sS'population'
p120
(lp121
g0
(g9
g2
Ntp122
Rp123
(dp124
g13
S'Captures/wetlands-environment-3_1530831915.png'
p125
sg14
(dp126
g16
I93
sg17
I255
sg18
I0
sg19
I71
sg20
I0
sg21
I137
sg22
I255
sg23
I255
sg24
I255
sg25
I0
sg26
I23
sg27
I0
sg28
I213
sg29
I255
sg30
I46
ssg31
g32
sg33
g41
(g45
S'\xd1\xc9\x9a:'
p127
tp128
Rp129
sbag0
(g9
g2
Ntp130
Rp131
(dp132
g13
S'Captures/wetlands-environment-3_1530831920.png'
p133
sg14
(dp134
g16
I93
sg17
I255
sg18
I0
sg19
I71
sg20
I0
sg21
I137
sg22
I255
sg23
I255
sg24
I255
sg25
I0
sg26
I23
sg27
I0
sg28
I213
sg29
I255
sg30
I46
ssg31
g32
sg33
g41
(g45
S'^\x1c\xc6:'
p135
tp136
Rp137
sbag0
(g9
g2
Ntp138
Rp139
(dp140
g13
S'Captures/wetlands-environment-3_1530831925.png'
p141
sg14
(dp142
g16
I93
sg17
I255
sg18
I0
sg19
I71
sg20
I0
sg21
I137
sg22
I255
sg23
I255
sg24
I255
sg25
I0
sg26
I90
sg27
I0
sg28
I213
sg29
I255
sg30
I46
ssg31
g32
sg33
g41
(g45
S'\xe3\xc4\x8a:'
p143
tp144
Rp145
sbag0
(g9
g2
Ntp146
Rp147
(dp148
g13
S'Captures/wetlands-environment-3_1530831930.png'
p149
sg14
(dp150
g16
I93
sg17
I255
sg18
I0
sg19
I71
sg20
I0
sg21
I137
sg22
I255
sg23
I255
sg24
I255
sg25
I0
sg26
I90
sg27
I0
sg28
I213
sg29
I255
sg30
I46
ssg31
g32
sg33
g41
(g45
S'\xea\xed\xce:'
p151
tp152
Rp153
sbag0
(g9
g2
Ntp154
Rp155
(dp156
g13
S'Captures/wetlands-environment-3_1530831935.png'
p157
sg14
(dp158
g16
I219
sg17
I255
sg18
I0
sg19
I71
sg20
I0
sg21
I137
sg22
I255
sg23
I255
sg24
I255
sg25
I0
sg26
I23
sg27
I0
sg28
I213
sg29
I255
sg30
I46
ssg31
g32
sg33
g41
(g45
S'\xfd.!;'
p159
tp160
Rp161
sbag0
(g9
g2
Ntp162
Rp163
(dp164
g13
S'Captures/wetlands-environment-3_1530831940.png'
p165
sg14
(dp166
g16
I93
sg17
I255
sg18
I0
sg19
I71
sg20
I0
sg21
I137
sg22
I255
sg23
I255
sg24
I255
sg25
I0
sg26
I23
sg27
I0
sg28
I213
sg29
I255
sg30
I46
ssg31
g32
sg33
g41
(g45
S'\x9d\x05\xa0:'
p167
tp168
Rp169
sbag0
(g9
g2
Ntp170
Rp171
(dp172
g13
S'Captures/wetlands-environment-3_1530831945.png'
p173
sg14
(dp174
g16
I93
sg17
I255
sg18
I0
sg19
I71
sg20
I0
sg21
I137
sg22
I255
sg23
I255
sg24
I0
sg25
I0
sg26
I23
sg27
I0
sg28
I213
sg29
I255
sg30
I46
ssg31
g32
sg33
g41
(g45
S'\xdd\xeeE;'
p175
tp176
Rp177
sbag0
(g9
g2
Ntp178
Rp179
(dp180
g13
S'Captures/wetlands-environment-3_1530831950.png'
p181
sg14
(dp182
g16
I93
sg17
I255
sg18
I0
sg19
I71
sg20
I0
sg21
I137
sg22
I255
sg23
I255
sg24
I0
sg25
I0
sg26
I23
sg27
I0
sg28
I213
sg29
I255
sg30
I46
ssg31
g32
sg33
g41
(g45
S'\x10v\x15;'
p183
tp184
Rp185
sbag0
(g9
g2
Ntp186
Rp187
(dp188
g13
S'Captures/wetlands-environment-3_1530831955.png'
p189
sg14
(dp190
g16
I93
sg17
I255
sg18
I0
sg19
I71
sg20
I0
sg21
I137
sg22
I255
sg23
I255
sg24
I255
sg25
I0
sg26
I23
sg27
I0
sg28
I213
sg29
I255
sg30
I46
ssg31
g32
sg33
g41
(g45
S'w\xc8\xb3:'
p191
tp192
Rp193
sbag11
asb.